; Function Attrs: nounwind uwtable
define internal fastcc i32 @client_write_header(ptr noundef %0, ptr noundef nonnull %1, i64 noundef %2) unnamed_addr #0 {
  %4 = getelementptr inbounds nuw i8, ptr %0, i64 2562
  %5 = load i64, ptr %4, align 2
  %6 = or i64 %5, 8388608
  store i64 %6, ptr %4, align 2
  %7 = tail call i32 @Curl_client_write(ptr noundef %0, i32 noundef 4, ptr noundef nonnull %1, i64 noundef %2) #10
  %8 = and i64 %5, 8388608
  %9 = load i64, ptr %4, align 2
  %10 = and i64 %9, -8388609
  %11 = or disjoint i64 %10, %8
  store i64 %11, ptr %4, align 2
  ret i32 %7
}